; Function Attrs: nofree nounwind uwtable
define range(i32 -32, 1) i32 @pmix_bfrops_base_copy_ndstats(ptr noundef writeonly captures(none) %0, ptr noundef readonly captures(none) %1, i16 noundef zeroext %2) local_unnamed_addr #16 {
  %calloc.i.i = tail call dereferenceable_or_null(104) ptr @calloc(i64 1, i64 104)
  %4 = icmp eq ptr %calloc.i.i, null
  br i1 %4, label %pmix_bfrops_base_tma_copy_ndstats.exit, label %5, !prof !43

5:                                                ; preds = %3
  store ptr %calloc.i.i, ptr %0, align 8, !tbaa !15
  tail call fastcc void @pmix_bfrops_base_tma_populate_ndstats(ptr noundef %calloc.i.i, ptr noundef readonly %1)
  br label %pmix_bfrops_base_tma_copy_ndstats.exit

pmix_bfrops_base_tma_copy_ndstats.exit:           ; preds = %3, %5
  %.0.i = phi i32 [ 0, %5 ], [ -32, %3 ]
  ret i32 %.0.i
}